; Function Attrs: nounwind uwtable
define noalias nonnull ptr @l_Lean_throwMaxRecDepthAt___at___private_Lean_Meta_Tactic_Grind_Lookahead_0__Lean_Meta_Grind_solve_loop___spec__1___boxed(ptr noundef %0, ptr noundef %1, ptr noundef %2, ptr noundef %3, ptr noundef %4, ptr noundef %5, ptr noundef %6, ptr noundef %7, ptr noundef %8) local_unnamed_addr #0 {
  %10 = load ptr, ptr @l_Lean_throwMaxRecDepthAt___at___private_Lean_Meta_Tactic_Grind_Lookahead_0__Lean_Meta_Grind_solve_loop___spec__1___closed__6, align 8, !tbaa !4
  tail call void @lean_inc_heartbeat() #4
  %11 = tail call noalias ptr @mi_malloc_small(i64 noundef 24) #4
  %12 = icmp eq ptr %11, null
  br i1 %12, label %13, label %lean_alloc_ctor.exit.i

13:                                               ; preds = %9
  tail call void @lean_internal_panic_out_of_memory() #5
  unreachable

lean_alloc_ctor.exit.i:                           ; preds = %9
  %14 = getelementptr inbounds nuw i8, ptr %11, i64 4
  store i32 1, ptr %11, align 4, !tbaa !8
  store i32 131096, ptr %14, align 4
  %15 = getelementptr inbounds nuw i8, ptr %11, i64 8
  store ptr %0, ptr %15, align 8, !tbaa !4
  %16 = getelementptr inbounds nuw i8, ptr %11, i64 16
  store ptr %10, ptr %16, align 8, !tbaa !4
  tail call void @lean_inc_heartbeat() #4
  %17 = tail call noalias ptr @mi_malloc_small(i64 noundef 24) #4
  %18 = icmp eq ptr %17, null
  br i1 %18, label %19, label %l_Lean_throwMaxRecDepthAt___at___private_Lean_Meta_Tactic_Grind_Lookahead_0__Lean_Meta_Grind_solve_loop___spec__1.exit

19:                                               ; preds = %lean_alloc_ctor.exit.i
  tail call void @lean_internal_panic_out_of_memory() #5
  unreachable

l_Lean_throwMaxRecDepthAt___at___private_Lean_Meta_Tactic_Grind_Lookahead_0__Lean_Meta_Grind_solve_loop___spec__1.exit: ; preds = %lean_alloc_ctor.exit.i
  %20 = getelementptr inbounds nuw i8, ptr %17, i64 4
  store i32 1, ptr %17, align 4, !tbaa !8
  store i32 16908312, ptr %20, align 4
  %21 = getelementptr inbounds nuw i8, ptr %17, i64 8
  store ptr %11, ptr %21, align 8, !tbaa !4
  %22 = getelementptr inbounds nuw i8, ptr %17, i64 16
  store ptr %8, ptr %22, align 8, !tbaa !4
  %23 = ptrtoint ptr %7 to i64
  %24 = and i64 %23, 1
  %.not = icmp eq i64 %24, 0
  br i1 %.not, label %25, label %lean_dec.exit22

25:                                               ; preds = %l_Lean_throwMaxRecDepthAt___at___private_Lean_Meta_Tactic_Grind_Lookahead_0__Lean_Meta_Grind_solve_loop___spec__1.exit
  %26 = load i32, ptr %7, align 4, !tbaa !8
  %27 = icmp sgt i32 %26, 1
  br i1 %27, label %28, label %30, !prof !11

28:                                               ; preds = %25
  %29 = add nsw i32 %26, -1
  store i32 %29, ptr %7, align 4, !tbaa !8
  br label %lean_dec.exit22

30:                                               ; preds = %25
  %.not.i = icmp eq i32 %26, 0
  br i1 %.not.i, label %lean_dec.exit22, label %31

31:                                               ; preds = %30
  tail call void @lean_dec_ref_cold(ptr noundef nonnull %7) #4
  br label %lean_dec.exit22

lean_dec.exit22:                                  ; preds = %31, %30, %28, %l_Lean_throwMaxRecDepthAt___at___private_Lean_Meta_Tactic_Grind_Lookahead_0__Lean_Meta_Grind_solve_loop___spec__1.exit
  %32 = ptrtoint ptr %6 to i64
  %33 = and i64 %32, 1
  %.not35 = icmp eq i64 %33, 0
  br i1 %.not35, label %34, label %lean_dec.exit21

34:                                               ; preds = %lean_dec.exit22
  %35 = load i32, ptr %6, align 4, !tbaa !8
  %36 = icmp sgt i32 %35, 1
  br i1 %36, label %37, label %39, !prof !11

37:                                               ; preds = %34
  %38 = add nsw i32 %35, -1
  store i32 %38, ptr %6, align 4, !tbaa !8
  br label %lean_dec.exit21

39:                                               ; preds = %34
  %.not.i23 = icmp eq i32 %35, 0
  br i1 %.not.i23, label %lean_dec.exit21, label %40

40:                                               ; preds = %39
  tail call void @lean_dec_ref_cold(ptr noundef nonnull %6) #4
  br label %lean_dec.exit21

lean_dec.exit21:                                  ; preds = %40, %39, %37, %lean_dec.exit22
  %41 = ptrtoint ptr %5 to i64
  %42 = and i64 %41, 1
  %.not36 = icmp eq i64 %42, 0
  br i1 %.not36, label %43, label %lean_dec.exit20

43:                                               ; preds = %lean_dec.exit21
  %44 = load i32, ptr %5, align 4, !tbaa !8
  %45 = icmp sgt i32 %44, 1
  br i1 %45, label %46, label %48, !prof !11

46:                                               ; preds = %43
  %47 = add nsw i32 %44, -1
  store i32 %47, ptr %5, align 4, !tbaa !8
  br label %lean_dec.exit20

48:                                               ; preds = %43
  %.not.i25 = icmp eq i32 %44, 0
  br i1 %.not.i25, label %lean_dec.exit20, label %49

49:                                               ; preds = %48
  tail call void @lean_dec_ref_cold(ptr noundef nonnull %5) #4
  br label %lean_dec.exit20

lean_dec.exit20:                                  ; preds = %49, %48, %46, %lean_dec.exit21
  %50 = ptrtoint ptr %4 to i64
  %51 = and i64 %50, 1
  %.not37 = icmp eq i64 %51, 0
  br i1 %.not37, label %52, label %lean_dec.exit19

52:                                               ; preds = %lean_dec.exit20
  %53 = load i32, ptr %4, align 4, !tbaa !8
  %54 = icmp sgt i32 %53, 1
  br i1 %54, label %55, label %57, !prof !11

55:                                               ; preds = %52
  %56 = add nsw i32 %53, -1
  store i32 %56, ptr %4, align 4, !tbaa !8
  br label %lean_dec.exit19

57:                                               ; preds = %52
  %.not.i27 = icmp eq i32 %53, 0
  br i1 %.not.i27, label %lean_dec.exit19, label %58

58:                                               ; preds = %57
  tail call void @lean_dec_ref_cold(ptr noundef nonnull %4) #4
  br label %lean_dec.exit19

lean_dec.exit19:                                  ; preds = %58, %57, %55, %lean_dec.exit20
  %59 = ptrtoint ptr %3 to i64
  %60 = and i64 %59, 1
  %.not38 = icmp eq i64 %60, 0
  br i1 %.not38, label %61, label %lean_dec.exit18

61:                                               ; preds = %lean_dec.exit19
  %62 = load i32, ptr %3, align 4, !tbaa !8
  %63 = icmp sgt i32 %62, 1
  br i1 %63, label %64, label %66, !prof !11

64:                                               ; preds = %61
  %65 = add nsw i32 %62, -1
  store i32 %65, ptr %3, align 4, !tbaa !8
  br label %lean_dec.exit18

66:                                               ; preds = %61
  %.not.i29 = icmp eq i32 %62, 0
  br i1 %.not.i29, label %lean_dec.exit18, label %67

67:                                               ; preds = %66
  tail call void @lean_dec_ref_cold(ptr noundef nonnull %3) #4
  br label %lean_dec.exit18

lean_dec.exit18:                                  ; preds = %67, %66, %64, %lean_dec.exit19
  %68 = ptrtoint ptr %2 to i64
  %69 = and i64 %68, 1
  %.not39 = icmp eq i64 %69, 0
  br i1 %.not39, label %70, label %lean_dec.exit17

70:                                               ; preds = %lean_dec.exit18
  %71 = load i32, ptr %2, align 4, !tbaa !8
  %72 = icmp sgt i32 %71, 1
  br i1 %72, label %73, label %75, !prof !11

73:                                               ; preds = %70
  %74 = add nsw i32 %71, -1
  store i32 %74, ptr %2, align 4, !tbaa !8
  br label %lean_dec.exit17

75:                                               ; preds = %70
  %.not.i31 = icmp eq i32 %71, 0
  br i1 %.not.i31, label %lean_dec.exit17, label %76

76:                                               ; preds = %75
  tail call void @lean_dec_ref_cold(ptr noundef nonnull %2) #4
  br label %lean_dec.exit17

lean_dec.exit17:                                  ; preds = %76, %75, %73, %lean_dec.exit18
  %77 = ptrtoint ptr %1 to i64
  %78 = and i64 %77, 1
  %.not40 = icmp eq i64 %78, 0
  br i1 %.not40, label %79, label %lean_dec.exit

79:                                               ; preds = %lean_dec.exit17
  %80 = load i32, ptr %1, align 4, !tbaa !8
  %81 = icmp sgt i32 %80, 1
  br i1 %81, label %82, label %84, !prof !11

82:                                               ; preds = %79
  %83 = add nsw i32 %80, -1
  store i32 %83, ptr %1, align 4, !tbaa !8
  br label %lean_dec.exit

84:                                               ; preds = %79
  %.not.i33 = icmp eq i32 %80, 0
  br i1 %.not.i33, label %lean_dec.exit, label %85

85:                                               ; preds = %84
  tail call void @lean_dec_ref_cold(ptr noundef nonnull %1) #4
  br label %lean_dec.exit

lean_dec.exit:                                    ; preds = %85, %84, %82, %lean_dec.exit17
  ret ptr %17
}